target datalayout = "e-m:e-p270:32:32-p271:32:32-p272:64:64-i64:64-i128:128-f80:128-n8:16:32:64-S128"
target triple = "x86_64-pc-linux-gnu"

@.str.7 = private unnamed_addr constant [14 x i8] c"DEK-Info: %s,\00", align 1
@.str.8 = private unnamed_addr constant [5 x i8] c"%02X\00", align 1
@.str.9 = private unnamed_addr constant [2 x i8] c"\0A\00", align 1

; Function Attrs: nounwind uwtable
define void @PEM_dek_info(ptr noundef %0, ptr noundef %1, i32 noundef %2, ptr noundef %3) #0 {
  %5 = alloca ptr, align 8
  %6 = alloca ptr, align 8
  %7 = alloca i32, align 4
  %8 = alloca ptr, align 8
  %9 = alloca i64, align 8
  %10 = alloca ptr, align 8
  %11 = alloca i32, align 4
  %12 = alloca i32, align 4
  %13 = alloca i32, align 4
  store ptr %0, ptr %5, align 8, !tbaa !3
  store ptr %1, ptr %6, align 8, !tbaa !3
  store i32 %2, ptr %7, align 4, !tbaa !8
  store ptr %3, ptr %8, align 8, !tbaa !3
  call void @llvm.lifetime.start.p0(i64 8, ptr %9) #8
  call void @llvm.lifetime.start.p0(i64 8, ptr %10) #8
  %14 = load ptr, ptr %5, align 8, !tbaa !3
  %15 = load ptr, ptr %5, align 8, !tbaa !3
  %16 = call i64 @strlen(ptr noundef %15) #9
  %17 = getelementptr inbounds nuw i8, ptr %14, i64 %16
  store ptr %17, ptr %10, align 8, !tbaa !3
  call void @llvm.lifetime.start.p0(i64 4, ptr %11) #8
  %18 = load ptr, ptr %10, align 8, !tbaa !3
  %19 = load ptr, ptr %5, align 8, !tbaa !3
  %20 = ptrtoint ptr %18 to i64
  %21 = ptrtoint ptr %19 to i64
  %22 = sub i64 %20, %21
  %23 = sub i64 1024, %22
  %24 = trunc i64 %23 to i32
  store i32 %24, ptr %11, align 4, !tbaa !8
  call void @llvm.lifetime.start.p0(i64 4, ptr %12) #8
  %25 = load ptr, ptr %10, align 8, !tbaa !3
  %26 = load i32, ptr %11, align 4, !tbaa !8
  %27 = sext i32 %26 to i64
  %28 = load ptr, ptr %6, align 8, !tbaa !3
  %29 = call i32 (ptr, i64, ptr, ...) @BIO_snprintf(ptr noundef %25, i64 noundef %27, ptr noundef @.str.7, ptr noundef %28)
  store i32 %29, ptr %12, align 4, !tbaa !8
  %30 = load i32, ptr %12, align 4, !tbaa !8
  %31 = icmp sgt i32 %30, 0
  br i1 %31, label %32, label %77

32:                                               ; preds = %4
  %33 = load i32, ptr %12, align 4, !tbaa !8
  %34 = load i32, ptr %11, align 4, !tbaa !8
  %35 = sub nsw i32 %34, %33
  store i32 %35, ptr %11, align 4, !tbaa !8
  %36 = load i32, ptr %12, align 4, !tbaa !8
  %37 = load ptr, ptr %10, align 8, !tbaa !3
  %38 = sext i32 %36 to i64
  %39 = getelementptr inbounds i8, ptr %37, i64 %38
  store ptr %39, ptr %10, align 8, !tbaa !3
  store i64 0, ptr %9, align 8, !tbaa !11
  br label %40

40:                                               ; preds = %67, %32
  %41 = load i64, ptr %9, align 8, !tbaa !11
  %42 = load i32, ptr %7, align 4, !tbaa !8
  %43 = sext i32 %42 to i64
  %44 = icmp slt i64 %41, %43
  br i1 %44, label %45, label %70

45:                                               ; preds = %40
  %46 = load ptr, ptr %10, align 8, !tbaa !3
  %47 = load i32, ptr %11, align 4, !tbaa !8
  %48 = sext i32 %47 to i64
  %49 = load ptr, ptr %8, align 8, !tbaa !3
  %50 = load i64, ptr %9, align 8, !tbaa !11
  %51 = getelementptr inbounds i8, ptr %49, i64 %50
  %52 = load i8, ptr %51, align 1, !tbaa !13
  %53 = sext i8 %52 to i32
  %54 = and i32 255, %53
  %55 = call i32 (ptr, i64, ptr, ...) @BIO_snprintf(ptr noundef %46, i64 noundef %48, ptr noundef @.str.8, i32 noundef %54)
  store i32 %55, ptr %12, align 4, !tbaa !8
  %56 = load i32, ptr %12, align 4, !tbaa !8
  %57 = icmp sle i32 %56, 0
  br i1 %57, label %58, label %59

58:                                               ; preds = %45
  store i32 1, ptr %13, align 4
  br label %78

59:                                               ; preds = %45
  %60 = load i32, ptr %12, align 4, !tbaa !8
  %61 = load i32, ptr %11, align 4, !tbaa !8
  %62 = sub nsw i32 %61, %60
  store i32 %62, ptr %11, align 4, !tbaa !8
  %63 = load i32, ptr %12, align 4, !tbaa !8
  %64 = load ptr, ptr %10, align 8, !tbaa !3
  %65 = sext i32 %63 to i64
  %66 = getelementptr inbounds i8, ptr %64, i64 %65
  store ptr %66, ptr %10, align 8, !tbaa !3
  br label %67

67:                                               ; preds = %59
  %68 = load i64, ptr %9, align 8, !tbaa !11
  %69 = add nsw i64 %68, 1
  store i64 %69, ptr %9, align 8, !tbaa !11
  br label %40, !llvm.loop !14

70:                                               ; preds = %40
  %71 = load i32, ptr %11, align 4, !tbaa !8
  %72 = icmp sgt i32 %71, 1
  br i1 %72, label %73, label %76

73:                                               ; preds = %70
  %74 = load ptr, ptr %10, align 8, !tbaa !3
  %75 = call ptr @strcpy(ptr noundef %74, ptr noundef @.str.9) #8
  br label %76

76:                                               ; preds = %73, %70
  br label %77

77:                                               ; preds = %76, %4
  store i32 0, ptr %13, align 4
  br label %78

78:                                               ; preds = %77, %58
  call void @llvm.lifetime.end.p0(i64 4, ptr %12) #8
  call void @llvm.lifetime.end.p0(i64 4, ptr %11) #8
  call void @llvm.lifetime.end.p0(i64 8, ptr %10) #8
  call void @llvm.lifetime.end.p0(i64 8, ptr %9) #8
  %79 = load i32, ptr %13, align 4
  switch i32 %79, label %81 [
    i32 0, label %80
    i32 1, label %80
  ]

80:                                               ; preds = %78, %78
  ret void

81:                                               ; preds = %78
  unreachable
}