; Function Attrs: nounwind uwtable
define void @PEM_dek_info(ptr noundef %0, ptr noundef %1, i32 noundef %2, ptr noundef readonly captures(none) %3) local_unnamed_addr #0 {
  %5 = tail call i64 @strlen(ptr noundef nonnull dereferenceable(1) %0) #9
  %6 = getelementptr inbounds nuw i8, ptr %0, i64 %5
  %7 = trunc i64 %5 to i32
  %8 = sub i32 1024, %7
  %9 = sext i32 %8 to i64
  %10 = tail call i32 (ptr, i64, ptr, ...) @BIO_snprintf(ptr noundef nonnull %6, i64 noundef %9, ptr noundef nonnull @.str.7, ptr noundef %1) #10
  %11 = icmp sgt i32 %10, 0
  br i1 %11, label %12, label %.loopexit

12:                                               ; preds = %4
  %13 = sub nsw i32 %8, %10
  %14 = zext nneg i32 %10 to i64
  %15 = getelementptr inbounds nuw i8, ptr %6, i64 %14
  %16 = sext i32 %2 to i64
  %17 = icmp sgt i32 %2, 0
  br i1 %17, label %.lr.ph, label %._crit_edge

.lr.ph:                                           ; preds = %12, %24
  %.033 = phi i32 [ %25, %24 ], [ %13, %12 ]
  %.02532 = phi ptr [ %27, %24 ], [ %15, %12 ]
  %.02631 = phi i64 [ %28, %24 ], [ 0, %12 ]
  %18 = sext i32 %.033 to i64
  %19 = getelementptr inbounds nuw i8, ptr %3, i64 %.02631
  %20 = load i8, ptr %19, align 1, !tbaa !3
  %21 = zext i8 %20 to i32
  %22 = tail call i32 (ptr, i64, ptr, ...) @BIO_snprintf(ptr noundef %.02532, i64 noundef %18, ptr noundef nonnull @.str.8, i32 noundef %21) #10
  %23 = icmp slt i32 %22, 1
  br i1 %23, label %.loopexit, label %24

24:                                               ; preds = %.lr.ph
  %25 = sub nsw i32 %.033, %22
  %26 = zext nneg i32 %22 to i64
  %27 = getelementptr inbounds nuw i8, ptr %.02532, i64 %26
  %28 = add nuw nsw i64 %.02631, 1
  %exitcond.not = icmp eq i64 %28, %16
  br i1 %exitcond.not, label %._crit_edge, label %.lr.ph, !llvm.loop !6

._crit_edge:                                      ; preds = %24, %12
  %.025.lcssa = phi ptr [ %15, %12 ], [ %27, %24 ]
  %.0.lcssa = phi i32 [ %13, %12 ], [ %25, %24 ]
  %29 = icmp sgt i32 %.0.lcssa, 1
  br i1 %29, label %30, label %.loopexit

30:                                               ; preds = %._crit_edge
  store i16 10, ptr %.025.lcssa, align 1
  br label %.loopexit

.loopexit:                                        ; preds = %.lr.ph, %4, %30, %._crit_edge
  ret void
}